; Function Attrs: nounwind uwtable
define i32 @yr_parser_emit(ptr noundef %0, i8 noundef signext %1, ptr noundef %2) local_unnamed_addr #0 {
  %4 = alloca i8, align 1
  store i8 %1, ptr %4, align 1, !tbaa !3
  %5 = tail call ptr @yara_yyget_extra(ptr noundef %0) #6
  %6 = getelementptr inbounds nuw i8, ptr %5, i64 248
  %7 = load ptr, ptr %6, align 8, !tbaa !6
  %8 = call i32 @yr_arena_write_data(ptr noundef %7, ptr noundef nonnull %4, i64 noundef 1, ptr noundef %2) #6
  ret i32 %8
}